target datalayout = "e-m:e-p270:32:32-p271:32:32-p272:64:64-i64:64-i128:128-f80:128-n8:16:32:64-S128"
target triple = "x86_64-pc-linux-gnu"

%"class.icu_77::Calendar" = type <{ %"class.icu_77::UObject", [24 x i32], [24 x i8], i8, [7 x i8], double, ptr, i8, i16, i8, i32, i32, i32, i8, i8, i16, [4 x i8], ptr, ptr }>
%"class.icu_77::UObject" = type { ptr }

; Function Attrs: inlinehint mustprogress nounwind uwtable
define linkonce_odr noundef i32 @_ZNK6icu_778Calendar11internalGetE19UCalendarDateFieldsi(ptr noundef nonnull align 8 dereferenceable(192) %0, i32 noundef %1, i32 noundef %2) #4 comdat align 2 {
  %4 = alloca ptr, align 8
  %5 = alloca i32, align 4
  %6 = alloca i32, align 4
  store ptr %0, ptr %4, align 8, !tbaa !29
  store i32 %1, ptr %5, align 4, !tbaa !13
  store i32 %2, ptr %6, align 4, !tbaa !17
  %7 = load ptr, ptr %4, align 8
  %8 = getelementptr inbounds nuw %"class.icu_77::Calendar", ptr %7, i32 0, i32 2
  %9 = load i32, ptr %5, align 4, !tbaa !13
  %10 = zext i32 %9 to i64
  %11 = getelementptr inbounds nuw [24 x i8], ptr %8, i64 0, i64 %10
  %12 = load i8, ptr %11, align 1, !tbaa !28
  %13 = sext i8 %12 to i32
  %14 = icmp sgt i32 %13, 0
  br i1 %14, label %15, label %21

15:                                               ; preds = %3
  %16 = getelementptr inbounds nuw %"class.icu_77::Calendar", ptr %7, i32 0, i32 1
  %17 = load i32, ptr %5, align 4, !tbaa !13
  %18 = zext i32 %17 to i64
  %19 = getelementptr inbounds nuw [24 x i32], ptr %16, i64 0, i64 %18
  %20 = load i32, ptr %19, align 4, !tbaa !17
  br label %23

21:                                               ; preds = %3
  %22 = load i32, ptr %6, align 4, !tbaa !17
  br label %23

23:                                               ; preds = %21, %15
  %24 = phi i32 [ %20, %15 ], [ %22, %21 ]
  ret i32 %24
}

; Function Attrs: mustprogress uwtable
define noundef i32 @_ZN6icu_7715IslamicCalendar21handleGetExtendedYearER10UErrorCode(ptr noundef nonnull align 8 dereferenceable(192) %0, ptr noundef nonnull align 4 dereferenceable(4) %1) unnamed_addr #1 align 2 {
  %3 = alloca i32, align 4
  %4 = alloca ptr, align 8
  %5 = alloca ptr, align 8
  store ptr %0, ptr %4, align 8, !tbaa !3
  store ptr %1, ptr %5, align 8, !tbaa !12
  %6 = load ptr, ptr %4, align 8
  %7 = call noundef i32 @_ZNK6icu_778Calendar10newerFieldE19UCalendarDateFieldsS1_(ptr noundef nonnull align 8 dereferenceable(192) %6, i32 noundef 19, i32 noundef 1)
  %8 = icmp eq i32 %7, 19
  br i1 %8, label %9, label %11

9:                                                ; preds = %2
  %10 = call noundef i32 @_ZNK6icu_778Calendar11internalGetE19UCalendarDateFieldsi(ptr noundef nonnull align 8 dereferenceable(192) %6, i32 noundef 19, i32 noundef 1)
  store i32 %10, ptr %3, align 4
  br label %13

11:                                               ; preds = %2
  %12 = call noundef i32 @_ZNK6icu_778Calendar11internalGetE19UCalendarDateFieldsi(ptr noundef nonnull align 8 dereferenceable(192) %6, i32 noundef 1, i32 noundef 1)
  store i32 %12, ptr %3, align 4
  br label %13

13:                                               ; preds = %11, %9
  %14 = load i32, ptr %3, align 4
  ret i32 %14
}