; Function Attrs: mustprogress uwtable
define noundef i32 @_ZN6icu_7715IslamicCalendar21handleGetExtendedYearER10UErrorCode(ptr noundef nonnull align 8 dereferenceable(192) %0, ptr nonnull readnone align 4 captures(none) %1) unnamed_addr #1 align 2 {
  %3 = tail call noundef i32 @_ZNK6icu_778Calendar10newerFieldE19UCalendarDateFieldsS1_(ptr noundef nonnull align 8 dereferenceable(192) %0, i32 noundef 19, i32 noundef 1)
  %4 = icmp eq i32 %3, 19
  br i1 %4, label %5, label %12

5:                                                ; preds = %2
  %6 = getelementptr inbounds nuw i8, ptr %0, i64 123
  %7 = load i8, ptr %6, align 1, !tbaa !16
  %8 = icmp sgt i8 %7, 0
  br i1 %8, label %9, label %_ZNK6icu_778Calendar11internalGetE19UCalendarDateFieldsi.exit

9:                                                ; preds = %5
  %10 = getelementptr inbounds nuw i8, ptr %0, i64 84
  %11 = load i32, ptr %10, align 4, !tbaa !6
  br label %_ZNK6icu_778Calendar11internalGetE19UCalendarDateFieldsi.exit

12:                                               ; preds = %2
  %13 = getelementptr inbounds nuw i8, ptr %0, i64 105
  %14 = load i8, ptr %13, align 1, !tbaa !16
  %15 = icmp sgt i8 %14, 0
  br i1 %15, label %16, label %_ZNK6icu_778Calendar11internalGetE19UCalendarDateFieldsi.exit

16:                                               ; preds = %12
  %17 = getelementptr inbounds nuw i8, ptr %0, i64 12
  %18 = load i32, ptr %17, align 4, !tbaa !6
  br label %_ZNK6icu_778Calendar11internalGetE19UCalendarDateFieldsi.exit

_ZNK6icu_778Calendar11internalGetE19UCalendarDateFieldsi.exit: ; preds = %16, %12, %9, %5
  %.0 = phi i32 [ %11, %9 ], [ 1, %5 ], [ %18, %16 ], [ 1, %12 ]
  ret i32 %.0
}